target datalayout = "e-m:e-p270:32:32-p271:32:32-p272:64:64-i64:64-i128:128-f80:128-n8:16:32:64-S128"
target triple = "x86_64-pc-linux-gnu"

%struct._zend_phpdbg_globals = type { [11 x %struct._zend_array], %struct._zend_array, %struct._zend_array, ptr, ptr, %struct.phpdbg_frame_t, i32, ptr, %struct.phpdbg_lexer_data, ptr, %struct.sigaction, i32, i64, %struct.phpdbg_btree, %struct.phpdbg_btree, %struct._zend_array, %struct._zend_array, %struct._zend_array, %struct._zend_array, ptr, ptr, i8, ptr, ptr, ptr, i64, ptr, %struct._zval_struct, i32, i32, i8, i8, ptr, ptr, ptr, %struct._zend_array, ptr, ptr, ptr, [3 x %struct.anon.8], ptr, %struct.anon.9, i64, [2 x ptr], [3 x ptr], ptr, i8, ptr, ptr, [500 x i8], i32, %struct.phpdbg_signal_safe_mem, ptr, i64, ptr, i64 }
%struct.phpdbg_frame_t = type { i32, ptr, ptr }
%struct.phpdbg_lexer_data = type { i32, ptr, ptr, ptr, ptr, i32 }
%struct.sigaction = type { %union.anon.7, %struct.__sigset_t, i32, ptr }
%union.anon.7 = type { ptr }
%struct.__sigset_t = type { [16 x i64] }
%struct.phpdbg_btree = type { i64, i64, i8, ptr }
%struct._zval_struct = type { %union._zend_value, %union.anon, %union.anon.2 }
%union._zend_value = type { i64 }
%union.anon = type { i32 }
%union.anon.2 = type { i32 }
%struct._zend_array = type { %struct._zend_refcounted_h, %union.anon.4, i32, %union.anon.6, i32, i32, i32, i32, i64, ptr }
%struct._zend_refcounted_h = type { i32, %union.anon.3 }
%union.anon.3 = type { i32 }
%union.anon.4 = type { i32 }
%union.anon.6 = type { ptr }
%struct.anon.8 = type { i32 }
%struct.anon.9 = type { i8, i32, i32, ptr, i32 }
%struct.phpdbg_signal_safe_mem = type { ptr, i8, ptr, ptr }
%struct.siginfo_t = type { i32, i32, i32, i32, %union.anon.10 }
%union.anon.10 = type { %struct.anon.14, [80 x i8] }
%struct.anon.14 = type { i32, i32, i32, i64, i64 }
%struct.anon.15 = type { ptr, i16, %union.anon.16 }
%union.anon.16 = type { %struct.anon.17 }
%struct.anon.17 = type { ptr, ptr }
%struct.phpdbg_btree_result = type { i64, ptr }
%struct._phpdbg_watchpoint_t = type { %union.anon.27, i64, i32, ptr, %struct._zend_array, ptr, %union.anon.28 }
%union.anon.27 = type { ptr }
%union.anon.28 = type { %struct._zend_array }

@phpdbg_globals = external global %struct._zend_phpdbg_globals, align 8
@phpdbg_pagesize = internal global i64 0, align 8

; Function Attrs: nounwind uwtable
define internal ptr @phpdbg_check_for_watchpoint(ptr noundef %0, ptr noundef %1) #0 {
  %3 = alloca ptr, align 8
  %4 = alloca ptr, align 8
  %5 = alloca ptr, align 8
  %6 = alloca i64, align 8
  %7 = alloca ptr, align 8
  %8 = alloca ptr, align 8
  %9 = alloca ptr, align 8
  %10 = alloca ptr, align 8
  %11 = alloca ptr, align 8
  %12 = alloca ptr, align 8
  %13 = alloca ptr, align 8
  %14 = alloca ptr, align 8
  store ptr %0, ptr %11, align 8
  store ptr %1, ptr %12, align 8
  %15 = load ptr, ptr %11, align 8
  %16 = load ptr, ptr %12, align 8
  store ptr %16, ptr %7, align 8
  %17 = load ptr, ptr %7, align 8
  %18 = ptrtoint ptr %17 to i64
  %19 = load i64, ptr @phpdbg_pagesize, align 8
  %20 = sub nsw i64 %19, 1
  %21 = xor i64 %20, -1
  %22 = and i64 %18, %21
  %23 = inttoptr i64 %22 to ptr
  %24 = ptrtoint ptr %23 to i64
  %25 = load i64, ptr @phpdbg_pagesize, align 8
  %26 = add i64 %24, %25
  %27 = sub i64 %26, 1
  %28 = call ptr @phpdbg_btree_find_closest(ptr noundef %15, i64 noundef %27)
  store ptr %28, ptr %14, align 8
  %29 = load ptr, ptr %14, align 8
  %30 = icmp eq ptr %29, null
  br i1 %30, label %31, label %32

31:                                               ; preds = %2
  store ptr null, ptr %10, align 8
  br label %93

32:                                               ; preds = %2
  %33 = load ptr, ptr %14, align 8
  %34 = getelementptr inbounds %struct.phpdbg_btree_result, ptr %33, i32 0, i32 1
  %35 = load ptr, ptr %34, align 8
  store ptr %35, ptr %13, align 8
  %36 = load ptr, ptr %13, align 8
  %37 = getelementptr inbounds %struct._phpdbg_watchpoint_t, ptr %36, i32 0, i32 0
  %38 = load ptr, ptr %37, align 8
  store ptr %38, ptr %8, align 8
  %39 = load ptr, ptr %8, align 8
  %40 = ptrtoint ptr %39 to i64
  %41 = load i64, ptr @phpdbg_pagesize, align 8
  %42 = sub nsw i64 %41, 1
  %43 = xor i64 %42, -1
  %44 = and i64 %40, %43
  %45 = inttoptr i64 %44 to ptr
  %46 = load ptr, ptr %12, align 8
  %47 = icmp ugt ptr %45, %46
  br i1 %47, label %90, label %48

48:                                               ; preds = %32
  %49 = load ptr, ptr %13, align 8
  %50 = getelementptr inbounds %struct._phpdbg_watchpoint_t, ptr %49, i32 0, i32 0
  %51 = load ptr, ptr %50, align 8
  store ptr %51, ptr %9, align 8
  %52 = load ptr, ptr %9, align 8
  %53 = ptrtoint ptr %52 to i64
  %54 = load i64, ptr @phpdbg_pagesize, align 8
  %55 = sub nsw i64 %54, 1
  %56 = xor i64 %55, -1
  %57 = and i64 %53, %56
  %58 = inttoptr i64 %57 to ptr
  %59 = load ptr, ptr %13, align 8
  %60 = getelementptr inbounds %struct._phpdbg_watchpoint_t, ptr %59, i32 0, i32 0
  %61 = load ptr, ptr %60, align 8
  %62 = load ptr, ptr %13, align 8
  %63 = getelementptr inbounds %struct._phpdbg_watchpoint_t, ptr %62, i32 0, i32 1
  %64 = load i64, ptr %63, align 8
  store ptr %61, ptr %5, align 8
  store i64 %64, ptr %6, align 8
  %65 = load ptr, ptr %5, align 8
  %66 = ptrtoint ptr %65 to i64
  %67 = load i64, ptr %6, align 8
  %68 = add i64 %66, %67
  %69 = sub i64 %68, 1
  %70 = inttoptr i64 %69 to ptr
  store ptr %70, ptr %3, align 8
  %71 = load ptr, ptr %3, align 8
  %72 = ptrtoint ptr %71 to i64
  %73 = load i64, ptr @phpdbg_pagesize, align 8
  %74 = sub nsw i64 %73, 1
  %75 = xor i64 %74, -1
  %76 = and i64 %72, %75
  %77 = load ptr, ptr %5, align 8
  store ptr %77, ptr %4, align 8
  %78 = load ptr, ptr %4, align 8
  %79 = ptrtoint ptr %78 to i64
  %80 = load i64, ptr @phpdbg_pagesize, align 8
  %81 = sub nsw i64 %80, 1
  %82 = xor i64 %81, -1
  %83 = and i64 %79, %82
  %84 = sub i64 %76, %83
  %85 = load i64, ptr @phpdbg_pagesize, align 8
  %86 = add i64 %84, %85
  %87 = getelementptr inbounds i8, ptr %58, i64 %86
  %88 = load ptr, ptr %12, align 8
  %89 = icmp ult ptr %87, %88
  br i1 %89, label %90, label %91

90:                                               ; preds = %48, %32
  store ptr null, ptr %10, align 8
  br label %93

91:                                               ; preds = %48
  %92 = load ptr, ptr %13, align 8
  store ptr %92, ptr %10, align 8
  br label %93

93:                                               ; preds = %91, %90, %31
  %94 = load ptr, ptr %10, align 8
  ret ptr %94
}

; Function Attrs: nounwind uwtable
define hidden i32 @phpdbg_watchpoint_segfault_handler(ptr noundef %0, ptr noundef %1) #0 {
  %3 = alloca ptr, align 8
  %4 = alloca i32, align 4
  %5 = alloca ptr, align 8
  %6 = alloca ptr, align 8
  %7 = alloca ptr, align 8
  store ptr %0, ptr %5, align 8
  store ptr %1, ptr %6, align 8
  %8 = load ptr, ptr %5, align 8
  %9 = getelementptr inbounds %struct.siginfo_t, ptr %8, i32 0, i32 4
  %10 = getelementptr inbounds %struct.anon.15, ptr %9, i32 0, i32 0
  %11 = load ptr, ptr %10, align 8
  store ptr %11, ptr %3, align 8
  %12 = load ptr, ptr %3, align 8
  %13 = ptrtoint ptr %12 to i64
  %14 = load i64, ptr @phpdbg_pagesize, align 8
  %15 = sub nsw i64 %14, 1
  %16 = xor i64 %15, -1
  %17 = and i64 %13, %16
  %18 = inttoptr i64 %17 to ptr
  store ptr %18, ptr %7, align 8
  %19 = load ptr, ptr %7, align 8
  %20 = call ptr @phpdbg_check_for_watchpoint(ptr noundef getelementptr inbounds (%struct._zend_phpdbg_globals, ptr @phpdbg_globals, i32 0, i32 13), ptr noundef %19)
  %21 = icmp eq ptr %20, null
  br i1 %21, label %22, label %23

22:                                               ; preds = %2
  store i32 -1, ptr %4, align 4
  br label %31

23:                                               ; preds = %2
  %24 = load ptr, ptr %7, align 8
  %25 = load i64, ptr @phpdbg_pagesize, align 8
  %26 = call i32 @mprotect(ptr noundef %24, i64 noundef %25, i32 noundef 3) #11
  %27 = load ptr, ptr getelementptr inbounds (%struct._zend_phpdbg_globals, ptr @phpdbg_globals, i32 0, i32 19), align 8
  %28 = load ptr, ptr %7, align 8
  %29 = ptrtoint ptr %28 to i64
  %30 = call ptr @zend_hash_index_add_empty_element(ptr noundef %27, i64 noundef %29)
  store i32 0, ptr %4, align 4
  br label %31

31:                                               ; preds = %23, %22
  %32 = load i32, ptr %4, align 4
  ret i32 %32
}