; Function Attrs: nounwind uwtable
define hidden noundef i32 @phpdbg_watchpoint_segfault_handler(ptr nocapture noundef readonly %0, ptr nocapture noundef readnone %1) local_unnamed_addr #0 {
  %3 = getelementptr inbounds i8, ptr %0, i64 16
  %4 = load ptr, ptr %3, align 8
  %5 = ptrtoint ptr %4 to i64
  %6 = load i64, ptr @phpdbg_pagesize, align 8
  %7 = sub i64 0, %6
  %8 = and i64 %5, %7
  %9 = inttoptr i64 %8 to ptr
  %10 = add i64 %6, -1
  %11 = add i64 %10, %8
  %12 = tail call ptr @phpdbg_btree_find_closest(ptr noundef nonnull getelementptr inbounds (%struct._zend_phpdbg_globals, ptr @phpdbg_globals, i64 0, i32 13), i64 noundef %11) #17
  %13 = icmp eq ptr %12, null
  br i1 %13, label %phpdbg_check_for_watchpoint.exit.thread, label %14

14:                                               ; preds = %2
  %15 = getelementptr inbounds i8, ptr %12, i64 8
  %16 = load ptr, ptr %15, align 8
  %17 = load ptr, ptr %16, align 8
  %18 = ptrtoint ptr %17 to i64
  %19 = load i64, ptr @phpdbg_pagesize, align 8
  %20 = sub i64 0, %19
  %21 = and i64 %18, %20
  %22 = inttoptr i64 %21 to ptr
  %23 = icmp ugt ptr %22, %9
  br i1 %23, label %phpdbg_check_for_watchpoint.exit.thread, label %24

24:                                               ; preds = %14
  %25 = getelementptr inbounds i8, ptr %16, i64 8
  %26 = load i64, ptr %25, align 8
  %27 = add i64 %18, -1
  %28 = add i64 %27, %26
  %29 = and i64 %28, %20
  %30 = sub i64 %29, %21
  %31 = getelementptr i8, ptr %22, i64 %30
  %32 = getelementptr i8, ptr %31, i64 %19
  %33 = icmp ult ptr %32, %9
  br i1 %33, label %phpdbg_check_for_watchpoint.exit.thread, label %phpdbg_check_for_watchpoint.exit

phpdbg_check_for_watchpoint.exit:                 ; preds = %24
  %34 = tail call i32 @mprotect(ptr noundef %9, i64 noundef %19, i32 noundef 3) #17
  %35 = load ptr, ptr getelementptr inbounds (%struct._zend_phpdbg_globals, ptr @phpdbg_globals, i64 0, i32 19), align 8
  %36 = tail call ptr @zend_hash_index_add_empty_element(ptr noundef %35, i64 noundef %8) #17
  br label %phpdbg_check_for_watchpoint.exit.thread

phpdbg_check_for_watchpoint.exit.thread:          ; preds = %24, %14, %2, %phpdbg_check_for_watchpoint.exit
  %.0 = phi i32 [ 0, %phpdbg_check_for_watchpoint.exit ], [ -1, %2 ], [ -1, %14 ], [ -1, %24 ]
  ret i32 %.0
}